target datalayout = "e-m:e-p270:32:32-p271:32:32-p272:64:64-i64:64-i128:128-f80:128-n8:16:32:64-S128"
target triple = "x86_64-pc-linux-gnu"

%struct.H5S_hyper_dim_t = type { i64, i64, i64, i64 }
%struct.H5S_hyper_span_info_t = type { i32, ptr, ptr, [2 x %struct.H5S_hyper_op_info_t], ptr, ptr, [0 x i64] }
%struct.H5S_hyper_op_info_t = type { i64, %union.anon.1 }
%union.anon.1 = type { ptr }
%struct.H5S_hyper_span_t = type { i64, i64, ptr, ptr }

@H5S_init_g = external global i8, align 1
@H5_libterm_g = external global i8, align 1

; Function Attrs: nounwind uwtable
define internal zeroext i1 @H5S__hyper_rebuild_helper(ptr noundef %0, ptr noundef %1) #0 {
  %3 = alloca i1, align 1
  %4 = alloca ptr, align 8
  %5 = alloca ptr, align 8
  %6 = alloca ptr, align 8
  %7 = alloca ptr, align 8
  %8 = alloca i64, align 8
  %9 = alloca i64, align 8
  %10 = alloca i64, align 8
  %11 = alloca i64, align 8
  %12 = alloca i64, align 8
  %13 = alloca i8, align 1
  %14 = alloca i64, align 8
  %15 = alloca i64, align 8
  %16 = alloca i32, align 4
  store ptr %0, ptr %4, align 8, !tbaa !107
  store ptr %1, ptr %5, align 8, !tbaa !41
  call void @llvm.lifetime.start.p0(i64 8, ptr %6) #7
  call void @llvm.lifetime.start.p0(i64 8, ptr %7) #7
  call void @llvm.lifetime.start.p0(i64 8, ptr %8) #7
  call void @llvm.lifetime.start.p0(i64 8, ptr %9) #7
  call void @llvm.lifetime.start.p0(i64 8, ptr %10) #7
  call void @llvm.lifetime.start.p0(i64 8, ptr %11) #7
  call void @llvm.lifetime.start.p0(i64 8, ptr %12) #7
  call void @llvm.lifetime.start.p0(i64 1, ptr %13) #7
  store i8 1, ptr %13, align 1, !tbaa !8
  %17 = load i8, ptr @H5S_init_g, align 1, !tbaa !8, !range !12, !noundef !13
  %18 = trunc i8 %17 to i1
  br i1 %18, label %23, label %19

19:                                               ; preds = %2
  %20 = load i8, ptr @H5_libterm_g, align 1, !tbaa !8, !range !12, !noundef !13
  %21 = trunc i8 %20 to i1
  %22 = xor i1 %21, true
  br label %23

23:                                               ; preds = %19, %2
  %24 = phi i1 [ true, %2 ], [ %22, %19 ]
  %25 = xor i1 %24, true
  %26 = xor i1 %25, true
  %27 = zext i1 %26 to i32
  %28 = sext i32 %27 to i64
  %29 = call i64 @llvm.expect.i64(i64 %28, i64 1)
  %30 = icmp ne i64 %29, 0
  br i1 %30, label %31, label %162

31:                                               ; preds = %23
  %32 = load ptr, ptr %4, align 8, !tbaa !107
  %33 = getelementptr inbounds nuw %struct.H5S_hyper_span_info_t, ptr %32, i32 0, i32 4
  %34 = load ptr, ptr %33, align 8, !tbaa !99
  store ptr %34, ptr %6, align 8, !tbaa !99
  store i64 1, ptr %9, align 8, !tbaa !15
  store i64 0, ptr %11, align 8, !tbaa !15
  store i64 0, ptr %12, align 8, !tbaa !15
  %35 = load ptr, ptr %6, align 8, !tbaa !99
  %36 = getelementptr inbounds nuw %struct.H5S_hyper_span_t, ptr %35, i32 0, i32 2
  %37 = load ptr, ptr %36, align 8, !tbaa !103
  %38 = icmp ne ptr %37, null
  br i1 %38, label %39, label %51

39:                                               ; preds = %31
  %40 = load ptr, ptr %6, align 8, !tbaa !99
  %41 = getelementptr inbounds nuw %struct.H5S_hyper_span_t, ptr %40, i32 0, i32 2
  %42 = load ptr, ptr %41, align 8, !tbaa !103
  %43 = load ptr, ptr %5, align 8, !tbaa !41
  %44 = getelementptr inbounds %struct.H5S_hyper_dim_t, ptr %43, i64 1
  %45 = call zeroext i1 @H5S__hyper_rebuild_helper(ptr noundef %42, ptr noundef %44)
  br i1 %45, label %50, label %46

46:                                               ; preds = %39
  br label %47

47:                                               ; preds = %46
  store i8 0, ptr %13, align 1, !tbaa !8
  br label %161

48:                                               ; No predecessors!
  br label %49

49:                                               ; preds = %48
  br label %50

50:                                               ; preds = %49, %39
  br label %51

51:                                               ; preds = %50, %31
  %52 = load ptr, ptr %6, align 8, !tbaa !99
  %53 = getelementptr inbounds nuw %struct.H5S_hyper_span_t, ptr %52, i32 0, i32 0
  %54 = load i64, ptr %53, align 8, !tbaa !101
  store i64 %54, ptr %8, align 8, !tbaa !15
  %55 = load ptr, ptr %6, align 8, !tbaa !99
  %56 = getelementptr inbounds nuw %struct.H5S_hyper_span_t, ptr %55, i32 0, i32 1
  %57 = load i64, ptr %56, align 8, !tbaa !109
  %58 = load ptr, ptr %6, align 8, !tbaa !99
  %59 = getelementptr inbounds nuw %struct.H5S_hyper_span_t, ptr %58, i32 0, i32 0
  %60 = load i64, ptr %59, align 8, !tbaa !101
  %61 = sub i64 %57, %60
  %62 = add i64 %61, 1
  store i64 %62, ptr %10, align 8, !tbaa !15
  store ptr null, ptr %7, align 8, !tbaa !99
  br label %63

63:                                               ; preds = %134, %51
  %64 = load ptr, ptr %6, align 8, !tbaa !99
  %65 = icmp ne ptr %64, null
  br i1 %65, label %66, label %144

66:                                               ; preds = %63
  %67 = load i64, ptr %12, align 8, !tbaa !15
  %68 = icmp ugt i64 %67, 0
  br i1 %68, label %69, label %134

69:                                               ; preds = %66
  call void @llvm.lifetime.start.p0(i64 8, ptr %14) #7
  call void @llvm.lifetime.start.p0(i64 8, ptr %15) #7
  %70 = load ptr, ptr %6, align 8, !tbaa !99
  %71 = getelementptr inbounds nuw %struct.H5S_hyper_span_t, ptr %70, i32 0, i32 2
  %72 = load ptr, ptr %71, align 8, !tbaa !103
  %73 = icmp ne ptr %72, null
  br i1 %73, label %74, label %95

74:                                               ; preds = %69
  %75 = load ptr, ptr %7, align 8, !tbaa !99
  %76 = getelementptr inbounds nuw %struct.H5S_hyper_span_t, ptr %75, i32 0, i32 2
  %77 = load ptr, ptr %76, align 8, !tbaa !103
  %78 = load ptr, ptr %6, align 8, !tbaa !99
  %79 = getelementptr inbounds nuw %struct.H5S_hyper_span_t, ptr %78, i32 0, i32 2
  %80 = load ptr, ptr %79, align 8, !tbaa !103
  %81 = icmp ne ptr %77, %80
  br i1 %81, label %82, label %95

82:                                               ; preds = %74
  %83 = load ptr, ptr %6, align 8, !tbaa !99
  %84 = getelementptr inbounds nuw %struct.H5S_hyper_span_t, ptr %83, i32 0, i32 2
  %85 = load ptr, ptr %84, align 8, !tbaa !103
  %86 = load ptr, ptr %7, align 8, !tbaa !99
  %87 = getelementptr inbounds nuw %struct.H5S_hyper_span_t, ptr %86, i32 0, i32 2
  %88 = load ptr, ptr %87, align 8, !tbaa !103
  %89 = call zeroext i1 @H5S__hyper_cmp_spans(ptr noundef %85, ptr noundef %88) #8
  br i1 %89, label %94, label %90

90:                                               ; preds = %82
  br label %91

91:                                               ; preds = %90
  store i8 0, ptr %13, align 1, !tbaa !8
  store i32 4, ptr %16, align 4
  br label %131

92:                                               ; No predecessors!
  br label %93

93:                                               ; preds = %92
  br label %94

94:                                               ; preds = %93, %82
  br label %95

95:                                               ; preds = %94, %74, %69
  %96 = load ptr, ptr %6, align 8, !tbaa !99
  %97 = getelementptr inbounds nuw %struct.H5S_hyper_span_t, ptr %96, i32 0, i32 0
  %98 = load i64, ptr %97, align 8, !tbaa !101
  %99 = load i64, ptr %11, align 8, !tbaa !15
  %100 = sub i64 %98, %99
  store i64 %100, ptr %14, align 8, !tbaa !15
  %101 = load ptr, ptr %6, align 8, !tbaa !99
  %102 = getelementptr inbounds nuw %struct.H5S_hyper_span_t, ptr %101, i32 0, i32 1
  %103 = load i64, ptr %102, align 8, !tbaa !109
  %104 = load ptr, ptr %6, align 8, !tbaa !99
  %105 = getelementptr inbounds nuw %struct.H5S_hyper_span_t, ptr %104, i32 0, i32 0
  %106 = load i64, ptr %105, align 8, !tbaa !101
  %107 = sub i64 %103, %106
  %108 = add i64 %107, 1
  store i64 %108, ptr %15, align 8, !tbaa !15
  %109 = load i64, ptr %15, align 8, !tbaa !15
  %110 = load i64, ptr %10, align 8, !tbaa !15
  %111 = icmp ne i64 %109, %110
  br i1 %111, label %112, label %116

112:                                              ; preds = %95
  br label %113

113:                                              ; preds = %112
  store i8 0, ptr %13, align 1, !tbaa !8
  store i32 4, ptr %16, align 4
  br label %131

114:                                              ; No predecessors!
  br label %115

115:                                              ; preds = %114
  br label %116

116:                                              ; preds = %115, %95
  %117 = load i64, ptr %12, align 8, !tbaa !15
  %118 = icmp ugt i64 %117, 1
  br i1 %118, label %119, label %128

119:                                              ; preds = %116
  %120 = load i64, ptr %9, align 8, !tbaa !15
  %121 = load i64, ptr %14, align 8, !tbaa !15
  %122 = icmp ne i64 %120, %121
  br i1 %122, label %123, label %127

123:                                              ; preds = %119
  br label %124

124:                                              ; preds = %123
  store i8 0, ptr %13, align 1, !tbaa !8
  store i32 4, ptr %16, align 4
  br label %131

125:                                              ; No predecessors!
  br label %126

126:                                              ; preds = %125
  br label %127

127:                                              ; preds = %126, %119
  br label %130

128:                                              ; preds = %116
  %129 = load i64, ptr %14, align 8, !tbaa !15
  store i64 %129, ptr %9, align 8, !tbaa !15
  br label %130

130:                                              ; preds = %128, %127
  store i32 0, ptr %16, align 4
  br label %131

131:                                              ; preds = %124, %113, %91, %130
  call void @llvm.lifetime.end.p0(i64 8, ptr %15) #7
  call void @llvm.lifetime.end.p0(i64 8, ptr %14) #7
  %132 = load i32, ptr %16, align 4
  switch i32 %132, label %165 [
    i32 0, label %133
    i32 4, label %161
  ]

133:                                              ; preds = %131
  br label %134

134:                                              ; preds = %133, %66
  %135 = load ptr, ptr %6, align 8, !tbaa !99
  %136 = getelementptr inbounds nuw %struct.H5S_hyper_span_t, ptr %135, i32 0, i32 0
  %137 = load i64, ptr %136, align 8, !tbaa !101
  store i64 %137, ptr %11, align 8, !tbaa !15
  %138 = load ptr, ptr %6, align 8, !tbaa !99
  store ptr %138, ptr %7, align 8, !tbaa !99
  %139 = load ptr, ptr %6, align 8, !tbaa !99
  %140 = getelementptr inbounds nuw %struct.H5S_hyper_span_t, ptr %139, i32 0, i32 3
  %141 = load ptr, ptr %140, align 8, !tbaa !108
  store ptr %141, ptr %6, align 8, !tbaa !99
  %142 = load i64, ptr %12, align 8, !tbaa !15
  %143 = add i64 %142, 1
  store i64 %143, ptr %12, align 8, !tbaa !15
  br label %63, !llvm.loop !159

144:                                              ; preds = %63
  %145 = load i64, ptr %8, align 8, !tbaa !15
  %146 = load ptr, ptr %5, align 8, !tbaa !41
  %147 = getelementptr inbounds %struct.H5S_hyper_dim_t, ptr %146, i64 0
  %148 = getelementptr inbounds nuw %struct.H5S_hyper_dim_t, ptr %147, i32 0, i32 0
  store i64 %145, ptr %148, align 8, !tbaa !46
  %149 = load i64, ptr %12, align 8, !tbaa !15
  %150 = load ptr, ptr %5, align 8, !tbaa !41
  %151 = getelementptr inbounds %struct.H5S_hyper_dim_t, ptr %150, i64 0
  %152 = getelementptr inbounds nuw %struct.H5S_hyper_dim_t, ptr %151, i32 0, i32 2
  store i64 %149, ptr %152, align 8, !tbaa !49
  %153 = load i64, ptr %10, align 8, !tbaa !15
  %154 = load ptr, ptr %5, align 8, !tbaa !41
  %155 = getelementptr inbounds %struct.H5S_hyper_dim_t, ptr %154, i64 0
  %156 = getelementptr inbounds nuw %struct.H5S_hyper_dim_t, ptr %155, i32 0, i32 3
  store i64 %153, ptr %156, align 8, !tbaa !50
  %157 = load i64, ptr %9, align 8, !tbaa !15
  %158 = load ptr, ptr %5, align 8, !tbaa !41
  %159 = getelementptr inbounds %struct.H5S_hyper_dim_t, ptr %158, i64 0
  %160 = getelementptr inbounds nuw %struct.H5S_hyper_dim_t, ptr %159, i32 0, i32 1
  store i64 %157, ptr %160, align 8, !tbaa !48
  br label %161

161:                                              ; preds = %144, %131, %47
  br label %162

162:                                              ; preds = %161, %23
  %163 = load i8, ptr %13, align 1, !tbaa !8, !range !12, !noundef !13
  %164 = trunc i8 %163 to i1
  store i1 %164, ptr %3, align 1
  store i32 1, ptr %16, align 4
  br label %165

165:                                              ; preds = %162, %131
  call void @llvm.lifetime.end.p0(i64 1, ptr %13) #7
  call void @llvm.lifetime.end.p0(i64 8, ptr %12) #7
  call void @llvm.lifetime.end.p0(i64 8, ptr %11) #7
  call void @llvm.lifetime.end.p0(i64 8, ptr %10) #7
  call void @llvm.lifetime.end.p0(i64 8, ptr %9) #7
  call void @llvm.lifetime.end.p0(i64 8, ptr %8) #7
  call void @llvm.lifetime.end.p0(i64 8, ptr %7) #7
  call void @llvm.lifetime.end.p0(i64 8, ptr %6) #7
  %166 = load i1, ptr %3, align 1
  ret i1 %166
}