; Function Attrs: nofree nosync nounwind memory(readwrite, inaccessiblemem: none) uwtable
define internal fastcc noundef zeroext i1 @H5S__hyper_rebuild_helper(ptr noundef readonly captures(none) %0, ptr noundef nonnull writeonly captures(none) %1) unnamed_addr #3 {
  %3 = load i8, ptr @H5S_init_g, align 1, !tbaa !3, !range !7, !noundef !8
  %4 = trunc nuw i8 %3 to i1
  %5 = load i8, ptr @H5_libterm_g, align 1, !range !7
  %6 = trunc nuw i8 %5 to i1
  %7 = xor i1 %6, true
  %8 = select i1 %4, i1 true, i1 %7
  br i1 %8, label %9, label %.thread, !prof !9

9:                                                ; preds = %2
  %10 = getelementptr inbounds nuw i8, ptr %0, i64 56
  %11 = load ptr, ptr %10, align 8, !tbaa !88
  %12 = getelementptr inbounds nuw i8, ptr %11, i64 16
  %13 = load ptr, ptr %12, align 8, !tbaa !92
  %.not = icmp eq ptr %13, null
  br i1 %.not, label %17, label %14

14:                                               ; preds = %9
  %15 = getelementptr inbounds nuw i8, ptr %1, i64 32
  %16 = tail call fastcc zeroext i1 @H5S__hyper_rebuild_helper(ptr noundef nonnull %13, ptr noundef %15)
  br i1 %16, label %17, label %.thread

17:                                               ; preds = %14, %9
  %18 = load i64, ptr %11, align 8, !tbaa !90
  %19 = getelementptr inbounds nuw i8, ptr %11, i64 8
  %20 = load i64, ptr %19, align 8, !tbaa !97
  %21 = sub i64 %20, %18
  %22 = add i64 %21, 1
  br label %23

23:                                               ; preds = %17, %select.unfold
  %.03970 = phi ptr [ %11, %17 ], [ %42, %select.unfold ]
  %.04169 = phi i64 [ 0, %17 ], [ %43, %select.unfold ]
  %.04268 = phi i64 [ 0, %17 ], [ %40, %select.unfold ]
  %.04367 = phi ptr [ null, %17 ], [ %.03970, %select.unfold ]
  %.04466 = phi i64 [ 1, %17 ], [ %.145, %select.unfold ]
  %.not52 = icmp eq i64 %.04169, 0
  br i1 %.not52, label %.select.unfold_crit_edge, label %24

.select.unfold_crit_edge:                         ; preds = %23
  %.pre = load i64, ptr %.03970, align 8, !tbaa !90
  br label %select.unfold

24:                                               ; preds = %23
  %25 = getelementptr inbounds nuw i8, ptr %.03970, i64 16
  %26 = load ptr, ptr %25, align 8, !tbaa !92
  %.not53 = icmp eq ptr %26, null
  br i1 %.not53, label %32, label %27

27:                                               ; preds = %24
  %28 = getelementptr inbounds nuw i8, ptr %.04367, i64 16
  %29 = load ptr, ptr %28, align 8, !tbaa !92
  %.not54 = icmp eq ptr %29, %26
  br i1 %.not54, label %32, label %30

30:                                               ; preds = %27
  %31 = tail call fastcc zeroext i1 @H5S__hyper_cmp_spans(ptr noundef nonnull %26, ptr noundef %29) #15
  br i1 %31, label %32, label %.thread

32:                                               ; preds = %30, %27, %24
  %33 = load i64, ptr %.03970, align 8, !tbaa !90
  %34 = sub i64 %33, %.04268
  %35 = getelementptr inbounds nuw i8, ptr %.03970, i64 8
  %36 = load i64, ptr %35, align 8, !tbaa !97
  %37 = sub i64 %36, %33
  %.not55 = icmp eq i64 %37, %21
  br i1 %.not55, label %38, label %.thread

38:                                               ; preds = %32
  %.not56 = icmp eq i64 %.04169, 1
  br i1 %.not56, label %select.unfold, label %39

39:                                               ; preds = %38
  %.not57 = icmp eq i64 %.04466, %34
  br i1 %.not57, label %select.unfold, label %.thread

select.unfold:                                    ; preds = %.select.unfold_crit_edge, %39, %38
  %40 = phi i64 [ %.pre, %.select.unfold_crit_edge ], [ %33, %38 ], [ %33, %39 ]
  %.145 = phi i64 [ %.04466, %.select.unfold_crit_edge ], [ %34, %38 ], [ %.04466, %39 ]
  %41 = getelementptr inbounds nuw i8, ptr %.03970, i64 24
  %42 = load ptr, ptr %41, align 8, !tbaa !96
  %43 = add i64 %.04169, 1
  %.not51 = icmp eq ptr %42, null
  br i1 %.not51, label %44, label %23, !llvm.loop !152

44:                                               ; preds = %select.unfold
  store i64 %18, ptr %1, align 8, !tbaa !44
  %45 = getelementptr inbounds nuw i8, ptr %1, i64 16
  store i64 %43, ptr %45, align 8, !tbaa !35
  %46 = getelementptr inbounds nuw i8, ptr %1, i64 24
  store i64 %22, ptr %46, align 8, !tbaa !46
  %47 = getelementptr inbounds nuw i8, ptr %1, i64 8
  store i64 %.145, ptr %47, align 8, !tbaa !45
  br label %.thread

.thread:                                          ; preds = %39, %32, %30, %14, %44, %2
  %.040 = phi i1 [ true, %44 ], [ true, %2 ], [ false, %14 ], [ false, %30 ], [ false, %32 ], [ false, %39 ]
  ret i1 %.040
}